target datalayout = "e-m:e-p270:32:32-p271:32:32-p272:64:64-i64:64-i128:128-f80:128-n8:16:32:64-S128"
target triple = "x86_64-pc-linux-gnu"

%struct.file_ctx_st = type { ptr, ptr, i32, %union.anon, i32 }
%union.anon = type { %struct.anon.1 }
%struct.anon.1 = type { ptr, i32, [9 x i8], ptr, i32 }
%struct.anon.0 = type { ptr, ptr, ptr, ptr }

@.str.4 = private unnamed_addr constant [60 x i8] c"../openssl/providers/implementations/storemgmt/file_store.c\00", align 1

; Function Attrs: nounwind uwtable
define internal void @free_file_ctx(ptr noundef %0) #0 {
  %2 = alloca ptr, align 8
  store ptr %0, ptr %2, align 8, !tbaa !9
  %3 = load ptr, ptr %2, align 8, !tbaa !9
  %4 = icmp eq ptr %3, null
  br i1 %4, label %5, label %6

5:                                                ; preds = %1
  br label %29

6:                                                ; preds = %1
  %7 = load ptr, ptr %2, align 8, !tbaa !9
  %8 = getelementptr inbounds nuw %struct.file_ctx_st, ptr %7, i32 0, i32 1
  %9 = load ptr, ptr %8, align 8, !tbaa !34
  call void @CRYPTO_free(ptr noundef %9, ptr noundef @.str.4, i32 noundef 114)
  %10 = load ptr, ptr %2, align 8, !tbaa !9
  %11 = getelementptr inbounds nuw %struct.file_ctx_st, ptr %10, i32 0, i32 2
  %12 = load i32, ptr %11, align 8, !tbaa !29
  %13 = icmp ne i32 %12, 1
  br i1 %13, label %14, label %27

14:                                               ; preds = %6
  %15 = load ptr, ptr %2, align 8, !tbaa !9
  %16 = getelementptr inbounds nuw %struct.file_ctx_st, ptr %15, i32 0, i32 3
  %17 = getelementptr inbounds nuw %struct.anon.0, ptr %16, i32 0, i32 1
  %18 = load ptr, ptr %17, align 8, !tbaa !16
  call void @OSSL_DECODER_CTX_free(ptr noundef %18)
  %19 = load ptr, ptr %2, align 8, !tbaa !9
  %20 = getelementptr inbounds nuw %struct.file_ctx_st, ptr %19, i32 0, i32 3
  %21 = getelementptr inbounds nuw %struct.anon.0, ptr %20, i32 0, i32 3
  %22 = load ptr, ptr %21, align 8, !tbaa !16
  call void @CRYPTO_free(ptr noundef %22, ptr noundef @.str.4, i32 noundef 117)
  %23 = load ptr, ptr %2, align 8, !tbaa !9
  %24 = getelementptr inbounds nuw %struct.file_ctx_st, ptr %23, i32 0, i32 3
  %25 = getelementptr inbounds nuw %struct.anon.0, ptr %24, i32 0, i32 2
  %26 = load ptr, ptr %25, align 8, !tbaa !16
  call void @CRYPTO_free(ptr noundef %26, ptr noundef @.str.4, i32 noundef 118)
  br label %27

27:                                               ; preds = %14, %6
  %28 = load ptr, ptr %2, align 8, !tbaa !9
  call void @CRYPTO_free(ptr noundef %28, ptr noundef @.str.4, i32 noundef 120)
  br label %29

29:                                               ; preds = %27, %5
  ret void
}

; Function Attrs: nounwind uwtable
define internal i32 @file_close_stream(ptr noundef %0) #0 {
  %2 = alloca ptr, align 8
  store ptr %0, ptr %2, align 8, !tbaa !9
  %3 = load ptr, ptr %2, align 8, !tbaa !9
  %4 = getelementptr inbounds nuw %struct.file_ctx_st, ptr %3, i32 0, i32 3
  %5 = getelementptr inbounds nuw %struct.anon.0, ptr %4, i32 0, i32 0
  %6 = load ptr, ptr %5, align 8, !tbaa !16
  %7 = call i32 @BIO_free(ptr noundef %6)
  %8 = load ptr, ptr %2, align 8, !tbaa !9
  %9 = getelementptr inbounds nuw %struct.file_ctx_st, ptr %8, i32 0, i32 3
  %10 = getelementptr inbounds nuw %struct.anon.0, ptr %9, i32 0, i32 0
  store ptr null, ptr %10, align 8, !tbaa !16
  %11 = load ptr, ptr %2, align 8, !tbaa !9
  call void @free_file_ctx(ptr noundef %11)
  ret i32 1
}

; Function Attrs: nounwind uwtable
define internal i32 @file_close_dir(ptr noundef %0) #0 {
  %2 = alloca ptr, align 8
  store ptr %0, ptr %2, align 8, !tbaa !9
  %3 = load ptr, ptr %2, align 8, !tbaa !9
  %4 = getelementptr inbounds nuw %struct.file_ctx_st, ptr %3, i32 0, i32 3
  %5 = getelementptr inbounds nuw %struct.anon.1, ptr %4, i32 0, i32 0
  %6 = load ptr, ptr %5, align 8, !tbaa !16
  %7 = icmp ne ptr %6, null
  br i1 %7, label %8, label %13

8:                                                ; preds = %1
  %9 = load ptr, ptr %2, align 8, !tbaa !9
  %10 = getelementptr inbounds nuw %struct.file_ctx_st, ptr %9, i32 0, i32 3
  %11 = getelementptr inbounds nuw %struct.anon.1, ptr %10, i32 0, i32 0
  %12 = call i32 @OPENSSL_DIR_end(ptr noundef %11)
  br label %13

13:                                               ; preds = %8, %1
  %14 = load ptr, ptr %2, align 8, !tbaa !9
  call void @free_file_ctx(ptr noundef %14)
  ret i32 1
}

; Function Attrs: nounwind uwtable
define internal i32 @file_close(ptr noundef %0) #0 {
  %2 = alloca i32, align 4
  %3 = alloca ptr, align 8
  %4 = alloca ptr, align 8
  %5 = alloca i32, align 4
  store ptr %0, ptr %3, align 8, !tbaa !3
  call void @llvm.lifetime.start.p0(i64 8, ptr %4) #8
  %6 = load ptr, ptr %3, align 8, !tbaa !3
  store ptr %6, ptr %4, align 8, !tbaa !9
  %7 = load ptr, ptr %4, align 8, !tbaa !9
  %8 = getelementptr inbounds nuw %struct.file_ctx_st, ptr %7, i32 0, i32 2
  %9 = load i32, ptr %8, align 8, !tbaa !29
  switch i32 %9, label %16 [
    i32 1, label %10
    i32 0, label %13
  ]

10:                                               ; preds = %1
  %11 = load ptr, ptr %4, align 8, !tbaa !9
  %12 = call i32 @file_close_dir(ptr noundef %11)
  store i32 %12, ptr %2, align 4
  store i32 1, ptr %5, align 4
  br label %17

13:                                               ; preds = %1
  %14 = load ptr, ptr %4, align 8, !tbaa !9
  %15 = call i32 @file_close_stream(ptr noundef %14)
  store i32 %15, ptr %2, align 4
  store i32 1, ptr %5, align 4
  br label %17

16:                                               ; preds = %1
  store i32 1, ptr %2, align 4
  store i32 1, ptr %5, align 4
  br label %17

17:                                               ; preds = %16, %13, %10
  call void @llvm.lifetime.end.p0(i64 8, ptr %4) #8
  %18 = load i32, ptr %2, align 4
  ret i32 %18
}