; Function Attrs: nounwind uwtable
define internal noundef i32 @file_close(ptr noundef %0) #0 {
  %2 = getelementptr inbounds nuw i8, ptr %0, i64 16
  %3 = load i32, ptr %2, align 8, !tbaa !18
  switch i32 %3, label %26 [
    i32 1, label %4
    i32 0, label %13
  ]

4:                                                ; preds = %1
  %5 = getelementptr inbounds nuw i8, ptr %0, i64 24
  %6 = load ptr, ptr %5, align 8, !tbaa !10
  %.not.i = icmp eq ptr %6, null
  br i1 %.not.i, label %9, label %7

7:                                                ; preds = %4
  %8 = tail call i32 @OPENSSL_DIR_end(ptr noundef nonnull %5) #8
  br label %9

9:                                                ; preds = %7, %4
  %10 = getelementptr inbounds nuw i8, ptr %0, i64 8
  %11 = load ptr, ptr %10, align 8, !tbaa !38
  tail call void @CRYPTO_free(ptr noundef %11, ptr noundef nonnull @.str.4, i32 noundef 114) #8
  %12 = load i32, ptr %2, align 8, !tbaa !18
  %.not.i.i = icmp eq i32 %12, 1
  br i1 %.not.i.i, label %.sink.split, label %.sink.split.sink.split

13:                                               ; preds = %1
  %14 = getelementptr inbounds nuw i8, ptr %0, i64 24
  %15 = load ptr, ptr %14, align 8, !tbaa !10
  %16 = tail call i32 @BIO_free(ptr noundef %15) #8
  store ptr null, ptr %14, align 8, !tbaa !10
  %17 = getelementptr inbounds nuw i8, ptr %0, i64 8
  %18 = load ptr, ptr %17, align 8, !tbaa !38
  tail call void @CRYPTO_free(ptr noundef %18, ptr noundef nonnull @.str.4, i32 noundef 114) #8
  %19 = load i32, ptr %2, align 8, !tbaa !18
  %.not.i.i4 = icmp eq i32 %19, 1
  br i1 %.not.i.i4, label %.sink.split, label %.sink.split.sink.split

.sink.split.sink.split:                           ; preds = %13, %9
  %20 = getelementptr inbounds nuw i8, ptr %0, i64 32
  %21 = load ptr, ptr %20, align 8, !tbaa !10
  tail call void @OSSL_DECODER_CTX_free(ptr noundef %21) #8
  %22 = getelementptr inbounds nuw i8, ptr %0, i64 48
  %23 = load ptr, ptr %22, align 8, !tbaa !10
  tail call void @CRYPTO_free(ptr noundef %23, ptr noundef nonnull @.str.4, i32 noundef 117) #8
  %24 = getelementptr inbounds nuw i8, ptr %0, i64 40
  %25 = load ptr, ptr %24, align 8, !tbaa !10
  tail call void @CRYPTO_free(ptr noundef %25, ptr noundef nonnull @.str.4, i32 noundef 118) #8
  br label %.sink.split

.sink.split:                                      ; preds = %.sink.split.sink.split, %13, %9
  tail call void @CRYPTO_free(ptr noundef nonnull %0, ptr noundef nonnull @.str.4, i32 noundef 120) #8
  br label %26

26:                                               ; preds = %.sink.split, %1
  ret i32 1
}